gpasm-1.2.0 #980 (May 17 2013) build/default/   4-8-2015  08:51:27          PAGE  1


LOC  OBJECT CODE     LINE SOURCE TEXT
  VALUE

                      00001 ;--------------------------------------------------------
                      00002 ; File Created by SDCC : free open source ANSI-C Compiler
                      00003 ; Version 3.3.0 #8604 (May 11 2013) (MINGW32)
                      00004 ; This file was generated Wed Apr 08 08:51:27 2015
                      00005 ;--------------------------------------------------------
                      00006 ; PIC16 port for the Microchip 16-bit core micros
                      00007 ;--------------------------------------------------------
                      00008         list    p=18f4520
                      00009         radix   dec
                      00010 
                      00011 
                      00012 ;--------------------------------------------------------
                      00013 ; public variables in this module
                      00014 ;--------------------------------------------------------
  0000                00015         global  _getLcdDriver
  0000                00016         global  _cmd
  0000                00017         global  _CHAR
  0000                00018         global  _init
                      00019 
                      00020 ;--------------------------------------------------------
                      00021 ; extern variables in this module
                      00022 ;--------------------------------------------------------
  0000                00023         extern  _EnviaComando
  0000                00024         extern  _EnviaDados
  0000                00025         extern  _InicializaLCD
                      00026 
                      00027 ;--------------------------------------------------------
                      00028 ;       Equates to used internal registers
                      00029 ;--------------------------------------------------------
  00000FE8            00030 WREG    equ     0xfe8
  00000FE1            00031 FSR1L   equ     0xfe1
  00000FD9            00032 FSR2L   equ     0xfd9
  00000FE6            00033 POSTINC1        equ     0xfe6
  00000FE5            00034 POSTDEC1        equ     0xfe5
  00000FE4            00035 PREINC1 equ     0xfe4
  00000FDB            00036 PLUSW2  equ     0xfdb
  00000FF3            00037 PRODL   equ     0xff3
  00000FF4            00038 PRODH   equ     0xff4
                      00039 
                      00040 
                      00041 ; Internal registers
                      00042 .registers      udata_ovr       0x0000
000000                00043 r0x00   res     1
000001                00044 r0x01   res     1
000002                00045 r0x02   res     1
                      00046 
                      00047 udata_drvLcd_0  udata
000000                00048 _eu     res     7
                      00049 
                      00050 udata_drvLcd_1  udata
000000                00051 _minhas_funcoes res     6
                      00052 
                      00053 ;--------------------------------------------------------
gpasm-1.2.0 #980 (May 17 2013) build/default/   4-8-2015  08:51:27          PAGE  2


LOC  OBJECT CODE     LINE SOURCE TEXT
  VALUE

                      00054 ; global & static initialisations
                      00055 ;--------------------------------------------------------
                      00056 ; I code from now on!
                      00057 ; ; Starting pCode block
                      00058 S_drvLcd__getLcdDriver  code
000000                00059 _getLcdDriver:
                      00060 ;       .line   47; drvLcd.c    driver* getLcdDriver(void) {
000000 CFD9 FFE5      00061         MOVFF   FSR2L, POSTDEC1
000004 CFE1 FFD9      00062         MOVFF   FSR1L, FSR2L
000008 C??? F???      00063         MOVFF   r0x00, POSTDEC1
00000C C??? F???      00064         MOVFF   r0x01, POSTDEC1
000010 C??? F???      00065         MOVFF   r0x02, POSTDEC1
                      00066 ;       .line   49; drvLcd.c    eu.drv_init = init;
000014 0E??           00067         MOVLW   LOW(_init)
000016 ????           00068         BANKSEL (_eu + 4)
000018 6F??           00069         MOVWF   (_eu + 4), B
00001A 0E??           00070         MOVLW   HIGH(_init)
00001C ????           00071         BANKSEL (_eu + 5)
00001E 6F??           00072         MOVWF   (_eu + 5), B
000020 0E??           00073         MOVLW   UPPER(_init)
000022 ????           00074         BANKSEL (_eu + 6)
000024 6F??           00075         MOVWF   (_eu + 6), B
                      00076 ;       .line   51; drvLcd.c    minhas_funcoes[LCD_CMD] = cmd;
000026 0E??           00077         MOVLW   LOW(_cmd)
000028 ????           00078         BANKSEL _minhas_funcoes
00002A 6F??           00079         MOVWF   _minhas_funcoes, B
00002C 0E??           00080         MOVLW   HIGH(_cmd)
00002E ????           00081         BANKSEL (_minhas_funcoes + 1)
000030 6F??           00082         MOVWF   (_minhas_funcoes + 1), B
000032 0E??           00083         MOVLW   UPPER(_cmd)
000034 ????           00084         BANKSEL (_minhas_funcoes + 2)
000036 6F??           00085         MOVWF   (_minhas_funcoes + 2), B
                      00086 ;       .line   52; drvLcd.c    minhas_funcoes[LCD_CHAR] = CHAR;
000038 0E??           00087         MOVLW   LOW(_CHAR)
00003A ????           00088         BANKSEL (_minhas_funcoes + 3)
00003C 6F??           00089         MOVWF   (_minhas_funcoes + 3), B
00003E 0E??           00090         MOVLW   HIGH(_CHAR)
000040 ????           00091         BANKSEL (_minhas_funcoes + 4)
000042 6F??           00092         MOVWF   (_minhas_funcoes + 4), B
000044 0E??           00093         MOVLW   UPPER(_CHAR)
000046 ????           00094         BANKSEL (_minhas_funcoes + 5)
000048 6F??           00095         MOVWF   (_minhas_funcoes + 5), B
                      00096 ;       .line   54; drvLcd.c    eu.drv_func = minhas_funcoes;
00004A 0E??           00097         MOVLW   HIGH(_minhas_funcoes)
00004C 6E??           00098         MOVWF   r0x01
00004E 0E??           00099         MOVLW   LOW(_minhas_funcoes)
000050 6E??           00100         MOVWF   r0x00
000052 0E80           00101         MOVLW   0x80
000054 6E??           00102         MOVWF   r0x02
000056 50??           00103         MOVF    r0x00, W
000058 ????           00104         BANKSEL (_eu + 1)
00005A 6F??           00105         MOVWF   (_eu + 1), B
00005C 50??           00106         MOVF    r0x01, W
gpasm-1.2.0 #980 (May 17 2013) build/default/   4-8-2015  08:51:27          PAGE  3


LOC  OBJECT CODE     LINE SOURCE TEXT
  VALUE

00005E ????           00107         BANKSEL (_eu + 2)
000060 6F??           00108         MOVWF   (_eu + 2), B
000062 50??           00109         MOVF    r0x02, W
000064 ????           00110         BANKSEL (_eu + 3)
000066 6F??           00111         MOVWF   (_eu + 3), B
                      00112 ;       .line   55; drvLcd.c    return &eu;
000068 0E??           00113         MOVLW   HIGH(_eu)
00006A 6E??           00114         MOVWF   r0x01
00006C 0E??           00115         MOVLW   LOW(_eu)
00006E 6E??           00116         MOVWF   r0x00
000070 0E80           00117         MOVLW   0x80
000072 6E??           00118         MOVWF   r0x02
000074 C??? F???      00119         MOVFF   r0x02, PRODH
000078 C??? F???      00120         MOVFF   r0x01, PRODL
00007C 50??           00121         MOVF    r0x00, W
00007E CFE4 F000      00122         MOVFF   PREINC1, r0x02
000082 CFE4 F000      00123         MOVFF   PREINC1, r0x01
000086 CFE4 F000      00124         MOVFF   PREINC1, r0x00
00008A CFE4 FFD9      00125         MOVFF   PREINC1, FSR2L
00008E 0012           00126         RETURN  
                      00127 
                      00128 ; ; Starting pCode block
                      00129 S_drvLcd__init  code
000000                00130 _init:
                      00131 ;       .line   41; drvLcd.c    char init(void *parameters) {
000000 CFD9 FFE5      00132         MOVFF   FSR2L, POSTDEC1
000004 CFE1 FFD9      00133         MOVFF   FSR1L, FSR2L
000008 C??? F???      00134         MOVFF   r0x00, POSTDEC1
00000C C??? F???      00135         MOVFF   r0x01, POSTDEC1
000010 C??? F???      00136         MOVFF   r0x02, POSTDEC1
000014 0E02           00137         MOVLW   0x02
000016 CFDB F000      00138         MOVFF   PLUSW2, r0x00
00001A 0E03           00139         MOVLW   0x03
00001C CFDB F000      00140         MOVFF   PLUSW2, r0x01
000020 0E04           00141         MOVLW   0x04
000022 CFDB F000      00142         MOVFF   PLUSW2, r0x02
                      00143 ;       .line   42; drvLcd.c    InicializaLCD();
000026 EC?? F0??      00144         CALL    _InicializaLCD
                      00145 ;       .line   43; drvLcd.c    eu.drv_id = (char) parameters;
00002A 50??           00146         MOVF    r0x00, W
00002C ????           00147         BANKSEL _eu
00002E 6F??           00148         MOVWF   _eu, B
                      00149 ;       .line   44; drvLcd.c    return SUCCESS;
000030 0E01           00150         MOVLW   0x01
000032 CFE4 F000      00151         MOVFF   PREINC1, r0x02
000036 CFE4 F000      00152         MOVFF   PREINC1, r0x01
00003A CFE4 F000      00153         MOVFF   PREINC1, r0x00
00003E CFE4 FFD9      00154         MOVFF   PREINC1, FSR2L
000042 0012           00155         RETURN  
                      00156 
                      00157 ; ; Starting pCode block
                      00158 S_drvLcd__CHAR  code
000000                00159 _CHAR:
gpasm-1.2.0 #980 (May 17 2013) build/default/   4-8-2015  08:51:27          PAGE  4


LOC  OBJECT CODE     LINE SOURCE TEXT
  VALUE

                      00160 ;       .line   36; drvLcd.c    char CHAR(void *parameters) {
000000 CFD9 FFE5      00161         MOVFF   FSR2L, POSTDEC1
000004 CFE1 FFD9      00162         MOVFF   FSR1L, FSR2L
000008 C??? F???      00163         MOVFF   r0x00, POSTDEC1
00000C C??? F???      00164         MOVFF   r0x01, POSTDEC1
000010 C??? F???      00165         MOVFF   r0x02, POSTDEC1
000014 0E02           00166         MOVLW   0x02
000016 CFDB F000      00167         MOVFF   PLUSW2, r0x00
00001A 0E03           00168         MOVLW   0x03
00001C CFDB F000      00169         MOVFF   PLUSW2, r0x01
000020 0E04           00170         MOVLW   0x04
000022 CFDB F000      00171         MOVFF   PLUSW2, r0x02
                      00172 ;       .line   37; drvLcd.c    EnviaDados((unsigned char)parameters);
000026 50??           00173         MOVF    r0x00, W
000028 6EE5           00174         MOVWF   POSTDEC1
00002A EC?? F0??      00175         CALL    _EnviaDados
00002E 52E6           00176         MOVF    POSTINC1, F
                      00177 ;       .line   38; drvLcd.c    return SUCCESS;
000030 0E01           00178         MOVLW   0x01
000032 CFE4 F000      00179         MOVFF   PREINC1, r0x02
000036 CFE4 F000      00180         MOVFF   PREINC1, r0x01
00003A CFE4 F000      00181         MOVFF   PREINC1, r0x00
00003E CFE4 FFD9      00182         MOVFF   PREINC1, FSR2L
000042 0012           00183         RETURN  
                      00184 
                      00185 ; ; Starting pCode block
                      00186 S_drvLcd__cmd   code
000000                00187 _cmd:
                      00188 ;       .line   30; drvLcd.c    char cmd(void *parameters) {
000000 CFD9 FFE5      00189         MOVFF   FSR2L, POSTDEC1
000004 CFE1 FFD9      00190         MOVFF   FSR1L, FSR2L
000008 C??? F???      00191         MOVFF   r0x00, POSTDEC1
00000C C??? F???      00192         MOVFF   r0x01, POSTDEC1
000010 C??? F???      00193         MOVFF   r0x02, POSTDEC1
000014 0E02           00194         MOVLW   0x02
000016 CFDB F000      00195         MOVFF   PLUSW2, r0x00
00001A 0E03           00196         MOVLW   0x03
00001C CFDB F000      00197         MOVFF   PLUSW2, r0x01
000020 0E04           00198         MOVLW   0x04
000022 CFDB F000      00199         MOVFF   PLUSW2, r0x02
                      00200 ;       .line   31; drvLcd.c    EnviaComando((unsigned char)parameters);
000026 50??           00201         MOVF    r0x00, W
000028 6EE5           00202         MOVWF   POSTDEC1
00002A EC?? F0??      00203         CALL    _EnviaComando
00002E 52E6           00204         MOVF    POSTINC1, F
                      00205 ;       .line   33; drvLcd.c    return SUCCESS;
000030 0E01           00206         MOVLW   0x01
000032 CFE4 F000      00207         MOVFF   PREINC1, r0x02
000036 CFE4 F000      00208         MOVFF   PREINC1, r0x01
00003A CFE4 F000      00209         MOVFF   PREINC1, r0x00
00003E CFE4 FFD9      00210         MOVFF   PREINC1, FSR2L
000042 0012           00211         RETURN  
                      00212 
gpasm-1.2.0 #980 (May 17 2013) build/default/   4-8-2015  08:51:27          PAGE  5


LOC  OBJECT CODE     LINE SOURCE TEXT
  VALUE

                      00213 
                      00214 
                      00215 ; Statistics:
                      00216 ; code size:      348 (0x015c) bytes ( 0.27%)
                      00217 ;                 174 (0x00ae) words
                      00218 ; udata size:      13 (0x000d) bytes ( 1.02%)
                      00219 ; access size:      3 (0x0003) bytes
                      00220 
                      00221 
                      00222         end
gpasm-1.2.0 #980 (May 17 2013) build/default/   4-8-2015  08:51:27          PAGE  6


SYMBOL TABLE
  LABEL                             VALUE

FSR1L                             00000FE1
FSR2L                             00000FD9
PLUSW2                            00000FDB
POSTDEC1                          00000FE5
POSTINC1                          00000FE6
PREINC1                           00000FE4
PRODH                             00000FF4
PRODL                             00000FF3
WREG                              00000FE8
_CHAR                             00000000
_EnviaComando                     00000000
_EnviaDados                       00000000
_InicializaLCD                    00000000
__18F4520                         00000001
_cmd                              00000000
_eu                               00000000
_getLcdDriver                     00000000
_init                             00000000
_minhas_funcoes                   00000000
r0x00                             00000000
r0x01                             00000001
r0x02                             00000002

Errors   :     0
Warnings :     0 reported,     0 suppressed
Messages :     0 reported,     0 suppressed

