gplink-1.2.0 #980 (May 17 2013)
Map File - Created 4-1-2015  10:06:20

                                 Section Info
                  Section       Type    Address   Location Size(Bytes)
                ---------  ---------  ---------  ---------  ---------
                   .cinit    romdata   0x000728    program   0x00000e
                 .idata_i    romdata   0x00073a    program   0x000002
.config_300001_BUILD/DEFAULT/PRODUCTION/MAIN.O    romdata   0x300001    program   0x000001
.config_300003_BUILD/DEFAULT/PRODUCTION/MAIN.O    romdata   0x300003    program   0x000001
.config_300005_BUILD/DEFAULT/PRODUCTION/MAIN.O    romdata   0x300005    program   0x000001
.config_300006_BUILD/DEFAULT/PRODUCTION/MAIN.O    romdata   0x300006    program   0x000001
          S_crt0i___entry       code   0x000000    program   0x000004
             S_main__main       code   0x000004    program   0x00015e
  S_drvLcd__InicializaLCD       code   0x000162    program   0x00011a
     S_drvLcd__EnviaDados       code   0x00027c    program   0x0000be
   S_drvLcd__EnviaComando       code   0x00033a    program   0x0000be
        S_crt0i___startup       code   0x0003f8    program   0x00009e
   S_drvLed__getLedDriver       code   0x000496    program   0x000090
   S_drvLcd__getLcdDriver       code   0x000526    program   0x000090
        S_drvLed__initLed       code   0x0005b6    program   0x000048
    S_drvLed__changePORTD       code   0x0005fe    program   0x000042
    S_gptrget3___gptrget3       code   0x000640    program   0x000036
       S_drvLcd__Delay2ms       code   0x000676    program   0x000032
      S_drvLcd__Delay40us       code   0x0006a8    program   0x00002e
    S_drvLed__invertPORTD       code   0x0006d6    program   0x00002a
S_eeprom8_gptrget3____eeprom8_gptrget3       code   0x000700    program   0x000028
 S___eeprom_gptrget3_stub       code   0x000736    program   0x000004
                   .idata      idata   0x00009a       data   0x000001
               .registers      udata   0x000000       data   0x000009
           udata_drvLed_0      udata   0x000080       data   0x000007
           udata_drvLcd_0      udata   0x000087       data   0x000007
           udata_drvLed_1      udata   0x00008e       data   0x000006
           udata_drvLcd_1      udata   0x000094       data   0x000006
            stack_section      udata   0x000100       data   0x000100
      ustat_pic18f4520_00      udata   0x000f80       data   0x000005
      ustat_pic18f4520_01      udata   0x000f89       data   0x000005
      ustat_pic18f4520_02      udata   0x000f92       data   0x000005
      ustat_pic18f4520_03      udata   0x000f9b       data   0x000001
      ustat_pic18f4520_04      udata   0x000f9d       data   0x000006
      ustat_pic18f4520_05      udata   0x000fa6       data   0x000004
      ustat_pic18f4520_06      udata   0x000fab       data   0x00000e
      ustat_pic18f4520_07      udata   0x000fba       data   0x00001a
      ustat_pic18f4520_08      udata   0x000fd5       data   0x00002b



                              Program Memory Usage
                               Start         End
                           ---------   ---------
                            0x000004    0x000161
                            0x300005    0x300005
                            0x300001    0x300001
                            0x300003    0x300003
                            0x300006    0x300006
                            0x000496    0x000525
                            0x0005b6    0x0005fd
                            0x0006d6    0x0006ff
                            0x0005fe    0x00063f
                            0x000526    0x0005b5
                            0x000162    0x00027b
                            0x00027c    0x000339
                            0x00033a    0x0003f7
                            0x000676    0x0006a7
                            0x0006a8    0x0006d5
                            0x00073a    0x00073b
                            0x000000    0x000003
                            0x0003f8    0x000495
                            0x000640    0x000675
                            0x000736    0x000739
                            0x000700    0x000727
                            0x000728    0x000735
                            1856 program addresses used



                              Symbols - Sorted by Name
                     Name    Address   Location    Storage File
                ---------  ---------  ---------  --------- ---------
               _00107_DS_   0x00006c    program     static build/default/production/main.asm
               _00108_DS_   0x0000e2    program     static build/default/production/main.asm
               _00108_DS_   0x0006bc    program     static build/default/production/drvLcd.asm
               _00109_DS_   0x00015c    program     static build/default/production/main.asm
               _00117_DS_   0x00068a    program     static build/default/production/drvLcd.asm
                  _ADCON0   0x000fc2       data     extern libdev18f4520_a-pic18f4520.asm
              _ADCON0bits   0x000fc2       data     extern libdev18f4520_a-pic18f4520.asm
                  _ADCON1   0x000fc1       data     extern libdev18f4520_a-pic18f4520.asm
              _ADCON1bits   0x000fc1       data     extern libdev18f4520_a-pic18f4520.asm
                  _ADCON2   0x000fc0       data     extern libdev18f4520_a-pic18f4520.asm
              _ADCON2bits   0x000fc0       data     extern libdev18f4520_a-pic18f4520.asm
                   _ADRES   0x000fc3       data     extern libdev18f4520_a-pic18f4520.asm
                  _ADRESH   0x000fc4       data     extern libdev18f4520_a-pic18f4520.asm
                  _ADRESL   0x000fc3       data     extern libdev18f4520_a-pic18f4520.asm
                 _BAUDCON   0x000fb8       data     extern libdev18f4520_a-pic18f4520.asm
             _BAUDCONbits   0x000fb8       data     extern libdev18f4520_a-pic18f4520.asm
                 _BAUDCTL   0x000fb8       data     extern libdev18f4520_a-pic18f4520.asm
             _BAUDCTLbits   0x000fb8       data     extern libdev18f4520_a-pic18f4520.asm
                     _BSR   0x000fe0       data     extern libdev18f4520_a-pic18f4520.asm
                 _CCP1CON   0x000fbd       data     extern libdev18f4520_a-pic18f4520.asm
             _CCP1CONbits   0x000fbd       data     extern libdev18f4520_a-pic18f4520.asm
                 _CCP2CON   0x000fba       data     extern libdev18f4520_a-pic18f4520.asm
             _CCP2CONbits   0x000fba       data     extern libdev18f4520_a-pic18f4520.asm
                   _CCPR1   0x000fbe       data     extern libdev18f4520_a-pic18f4520.asm
                  _CCPR1H   0x000fbf       data     extern libdev18f4520_a-pic18f4520.asm
                  _CCPR1L   0x000fbe       data     extern libdev18f4520_a-pic18f4520.asm
                   _CCPR2   0x000fbb       data     extern libdev18f4520_a-pic18f4520.asm
                  _CCPR2H   0x000fbc       data     extern libdev18f4520_a-pic18f4520.asm
                  _CCPR2L   0x000fbb       data     extern libdev18f4520_a-pic18f4520.asm
                   _CMCON   0x000fb4       data     extern libdev18f4520_a-pic18f4520.asm
               _CMCONbits   0x000fb4       data     extern libdev18f4520_a-pic18f4520.asm
                  _CVRCON   0x000fb5       data     extern libdev18f4520_a-pic18f4520.asm
              _CVRCONbits   0x000fb5       data     extern libdev18f4520_a-pic18f4520.asm
                    _DDRA   0x000f92       data     extern libdev18f4520_a-pic18f4520.asm
                _DDRAbits   0x000f92       data     extern libdev18f4520_a-pic18f4520.asm
                    _DDRB   0x000f93       data     extern libdev18f4520_a-pic18f4520.asm
                _DDRBbits   0x000f93       data     extern libdev18f4520_a-pic18f4520.asm
                    _DDRC   0x000f94       data     extern libdev18f4520_a-pic18f4520.asm
                _DDRCbits   0x000f94       data     extern libdev18f4520_a-pic18f4520.asm
                    _DDRD   0x000f95       data     extern libdev18f4520_a-pic18f4520.asm
                _DDRDbits   0x000f95       data     extern libdev18f4520_a-pic18f4520.asm
                    _DDRE   0x000f96       data     extern libdev18f4520_a-pic18f4520.asm
                _DDREbits   0x000f96       data     extern libdev18f4520_a-pic18f4520.asm
                _Delay2ms   0x000676    program     extern build/default/production/drvLcd.asm
               _Delay40us   0x0006a8    program     extern build/default/production/drvLcd.asm
                 _ECCP1AS   0x000fb6       data     extern libdev18f4520_a-pic18f4520.asm
             _ECCP1ASbits   0x000fb6       data     extern libdev18f4520_a-pic18f4520.asm
                _ECCP1DEL   0x000fb7       data     extern libdev18f4520_a-pic18f4520.asm
            _ECCP1DELbits   0x000fb7       data     extern libdev18f4520_a-pic18f4520.asm
                  _ECCPAS   0x000fb6       data     extern libdev18f4520_a-pic18f4520.asm
              _ECCPASbits   0x000fb6       data     extern libdev18f4520_a-pic18f4520.asm
                   _EEADR   0x000fa9       data     extern libdev18f4520_a-pic18f4520.asm
                  _EECON1   0x000fa6       data     extern libdev18f4520_a-pic18f4520.asm
              _EECON1bits   0x000fa6       data     extern libdev18f4520_a-pic18f4520.asm
                  _EECON2   0x000fa7       data     extern libdev18f4520_a-pic18f4520.asm
                  _EEDATA   0x000fa8       data     extern libdev18f4520_a-pic18f4520.asm
            _EnviaComando   0x00033a    program     extern build/default/production/drvLcd.asm
              _EnviaDados   0x00027c    program     extern build/default/production/drvLcd.asm
                   _FSR0H   0x000fea       data     extern libdev18f4520_a-pic18f4520.asm
                   _FSR0L   0x000fe9       data     extern libdev18f4520_a-pic18f4520.asm
                   _FSR1H   0x000fe2       data     extern libdev18f4520_a-pic18f4520.asm
                   _FSR1L   0x000fe1       data     extern libdev18f4520_a-pic18f4520.asm
                   _FSR2H   0x000fda       data     extern libdev18f4520_a-pic18f4520.asm
                   _FSR2L   0x000fd9       data     extern libdev18f4520_a-pic18f4520.asm
                 _HLVDCON   0x000fd2       data     extern libdev18f4520_a-pic18f4520.asm
             _HLVDCONbits   0x000fd2       data     extern libdev18f4520_a-pic18f4520.asm
                   _INDF0   0x000fef       data     extern libdev18f4520_a-pic18f4520.asm
                   _INDF1   0x000fe7       data     extern libdev18f4520_a-pic18f4520.asm
                   _INDF2   0x000fdf       data     extern libdev18f4520_a-pic18f4520.asm
                  _INTCON   0x000ff2       data     extern libdev18f4520_a-pic18f4520.asm
                 _INTCON2   0x000ff1       data     extern libdev18f4520_a-pic18f4520.asm
             _INTCON2bits   0x000ff1       data     extern libdev18f4520_a-pic18f4520.asm
                 _INTCON3   0x000ff0       data     extern libdev18f4520_a-pic18f4520.asm
             _INTCON3bits   0x000ff0       data     extern libdev18f4520_a-pic18f4520.asm
              _INTCONbits   0x000ff2       data     extern libdev18f4520_a-pic18f4520.asm
                    _IPR1   0x000f9f       data     extern libdev18f4520_a-pic18f4520.asm
                _IPR1bits   0x000f9f       data     extern libdev18f4520_a-pic18f4520.asm
                    _IPR2   0x000fa2       data     extern libdev18f4520_a-pic18f4520.asm
                _IPR2bits   0x000fa2       data     extern libdev18f4520_a-pic18f4520.asm
           _InicializaLCD   0x000162    program     extern build/default/production/drvLcd.asm
                    _LATA   0x000f89       data     extern libdev18f4520_a-pic18f4520.asm
                _LATAbits   0x000f89       data     extern libdev18f4520_a-pic18f4520.asm
                    _LATB   0x000f8a       data     extern libdev18f4520_a-pic18f4520.asm
                _LATBbits   0x000f8a       data     extern libdev18f4520_a-pic18f4520.asm
                    _LATC   0x000f8b       data     extern libdev18f4520_a-pic18f4520.asm
                _LATCbits   0x000f8b       data     extern libdev18f4520_a-pic18f4520.asm
                    _LATD   0x000f8c       data     extern libdev18f4520_a-pic18f4520.asm
                _LATDbits   0x000f8c       data     extern libdev18f4520_a-pic18f4520.asm
                    _LATE   0x000f8d       data     extern libdev18f4520_a-pic18f4520.asm
                _LATEbits   0x000f8d       data     extern libdev18f4520_a-pic18f4520.asm
                  _LVDCON   0x000fd2       data     extern libdev18f4520_a-pic18f4520.asm
              _LVDCONbits   0x000fd2       data     extern libdev18f4520_a-pic18f4520.asm
                  _OSCCON   0x000fd3       data     extern libdev18f4520_a-pic18f4520.asm
              _OSCCONbits   0x000fd3       data     extern libdev18f4520_a-pic18f4520.asm
                 _OSCTUNE   0x000f9b       data     extern libdev18f4520_a-pic18f4520.asm
             _OSCTUNEbits   0x000f9b       data     extern libdev18f4520_a-pic18f4520.asm
                      _PC   0x000ff9       data     extern libdev18f4520_a-pic18f4520.asm
                     _PCL   0x000ff9       data     extern libdev18f4520_a-pic18f4520.asm
                  _PCLATH   0x000ffa       data     extern libdev18f4520_a-pic18f4520.asm
                  _PCLATU   0x000ffb       data     extern libdev18f4520_a-pic18f4520.asm
                    _PIE1   0x000f9d       data     extern libdev18f4520_a-pic18f4520.asm
                _PIE1bits   0x000f9d       data     extern libdev18f4520_a-pic18f4520.asm
                    _PIE2   0x000fa0       data     extern libdev18f4520_a-pic18f4520.asm
                _PIE2bits   0x000fa0       data     extern libdev18f4520_a-pic18f4520.asm
                    _PIR1   0x000f9e       data     extern libdev18f4520_a-pic18f4520.asm
                _PIR1bits   0x000f9e       data     extern libdev18f4520_a-pic18f4520.asm
                    _PIR2   0x000fa1       data     extern libdev18f4520_a-pic18f4520.asm
                _PIR2bits   0x000fa1       data     extern libdev18f4520_a-pic18f4520.asm
                  _PLUSW0   0x000feb       data     extern libdev18f4520_a-pic18f4520.asm
                  _PLUSW1   0x000fe3       data     extern libdev18f4520_a-pic18f4520.asm
                  _PLUSW2   0x000fdb       data     extern libdev18f4520_a-pic18f4520.asm
                   _PORTA   0x000f80       data     extern libdev18f4520_a-pic18f4520.asm
               _PORTAbits   0x000f80       data     extern libdev18f4520_a-pic18f4520.asm
                   _PORTB   0x000f81       data     extern libdev18f4520_a-pic18f4520.asm
               _PORTBbits   0x000f81       data     extern libdev18f4520_a-pic18f4520.asm
                   _PORTC   0x000f82       data     extern libdev18f4520_a-pic18f4520.asm
               _PORTCbits   0x000f82       data     extern libdev18f4520_a-pic18f4520.asm
                   _PORTD   0x000f83       data     extern libdev18f4520_a-pic18f4520.asm
               _PORTDbits   0x000f83       data     extern libdev18f4520_a-pic18f4520.asm
                   _PORTE   0x000f84       data     extern libdev18f4520_a-pic18f4520.asm
               _PORTEbits   0x000f84       data     extern libdev18f4520_a-pic18f4520.asm
                _POSTDEC0   0x000fed       data     extern libdev18f4520_a-pic18f4520.asm
                _POSTDEC1   0x000fe5       data     extern libdev18f4520_a-pic18f4520.asm
                _POSTDEC2   0x000fdd       data     extern libdev18f4520_a-pic18f4520.asm
                _POSTINC0   0x000fee       data     extern libdev18f4520_a-pic18f4520.asm
                _POSTINC1   0x000fe6       data     extern libdev18f4520_a-pic18f4520.asm
                _POSTINC2   0x000fde       data     extern libdev18f4520_a-pic18f4520.asm
                     _PR2   0x000fcb       data     extern libdev18f4520_a-pic18f4520.asm
                 _PREINC0   0x000fec       data     extern libdev18f4520_a-pic18f4520.asm
                 _PREINC1   0x000fe4       data     extern libdev18f4520_a-pic18f4520.asm
                 _PREINC2   0x000fdc       data     extern libdev18f4520_a-pic18f4520.asm
                    _PROD   0x000ff3       data     extern libdev18f4520_a-pic18f4520.asm
                   _PRODH   0x000ff4       data     extern libdev18f4520_a-pic18f4520.asm
                   _PRODL   0x000ff3       data     extern libdev18f4520_a-pic18f4520.asm
                 _PWM1CON   0x000fb7       data     extern libdev18f4520_a-pic18f4520.asm
             _PWM1CONbits   0x000fb7       data     extern libdev18f4520_a-pic18f4520.asm
                    _RCON   0x000fd0       data     extern libdev18f4520_a-pic18f4520.asm
                _RCONbits   0x000fd0       data     extern libdev18f4520_a-pic18f4520.asm
                   _RCREG   0x000fae       data     extern libdev18f4520_a-pic18f4520.asm
                   _RCSTA   0x000fab       data     extern libdev18f4520_a-pic18f4520.asm
               _RCSTAbits   0x000fab       data     extern libdev18f4520_a-pic18f4520.asm
                   _SPBRG   0x000faf       data     extern libdev18f4520_a-pic18f4520.asm
                  _SPBRGH   0x000fb0       data     extern libdev18f4520_a-pic18f4520.asm
                  _SSPADD   0x000fc8       data     extern libdev18f4520_a-pic18f4520.asm
                  _SSPBUF   0x000fc9       data     extern libdev18f4520_a-pic18f4520.asm
                 _SSPCON1   0x000fc6       data     extern libdev18f4520_a-pic18f4520.asm
             _SSPCON1bits   0x000fc6       data     extern libdev18f4520_a-pic18f4520.asm
                 _SSPCON2   0x000fc5       data     extern libdev18f4520_a-pic18f4520.asm
             _SSPCON2bits   0x000fc5       data     extern libdev18f4520_a-pic18f4520.asm
                 _SSPSTAT   0x000fc7       data     extern libdev18f4520_a-pic18f4520.asm
             _SSPSTATbits   0x000fc7       data     extern libdev18f4520_a-pic18f4520.asm
                  _STATUS   0x000fd8       data     extern libdev18f4520_a-pic18f4520.asm
              _STATUSbits   0x000fd8       data     extern libdev18f4520_a-pic18f4520.asm
                  _STKPTR   0x000ffc       data     extern libdev18f4520_a-pic18f4520.asm
              _STKPTRbits   0x000ffc       data     extern libdev18f4520_a-pic18f4520.asm
                   _T0CON   0x000fd5       data     extern libdev18f4520_a-pic18f4520.asm
               _T0CONbits   0x000fd5       data     extern libdev18f4520_a-pic18f4520.asm
                   _T1CON   0x000fcd       data     extern libdev18f4520_a-pic18f4520.asm
               _T1CONbits   0x000fcd       data     extern libdev18f4520_a-pic18f4520.asm
                   _T2CON   0x000fca       data     extern libdev18f4520_a-pic18f4520.asm
               _T2CONbits   0x000fca       data     extern libdev18f4520_a-pic18f4520.asm
                   _T3CON   0x000fb1       data     extern libdev18f4520_a-pic18f4520.asm
               _T3CONbits   0x000fb1       data     extern libdev18f4520_a-pic18f4520.asm
                  _TABLAT   0x000ff5       data     extern libdev18f4520_a-pic18f4520.asm
                  _TBLPTR   0x000ff6       data     extern libdev18f4520_a-pic18f4520.asm
                 _TBLPTRH   0x000ff7       data     extern libdev18f4520_a-pic18f4520.asm
                 _TBLPTRL   0x000ff6       data     extern libdev18f4520_a-pic18f4520.asm
                 _TBLPTRU   0x000ff8       data     extern libdev18f4520_a-pic18f4520.asm
                    _TMR0   0x000fd6       data     extern libdev18f4520_a-pic18f4520.asm
                   _TMR0H   0x000fd7       data     extern libdev18f4520_a-pic18f4520.asm
                   _TMR0L   0x000fd6       data     extern libdev18f4520_a-pic18f4520.asm
                    _TMR1   0x000fce       data     extern libdev18f4520_a-pic18f4520.asm
                   _TMR1H   0x000fcf       data     extern libdev18f4520_a-pic18f4520.asm
                   _TMR1L   0x000fce       data     extern libdev18f4520_a-pic18f4520.asm
                    _TMR2   0x000fcc       data     extern libdev18f4520_a-pic18f4520.asm
                    _TMR3   0x000fb2       data     extern libdev18f4520_a-pic18f4520.asm
                   _TMR3H   0x000fb3       data     extern libdev18f4520_a-pic18f4520.asm
                   _TMR3L   0x000fb2       data     extern libdev18f4520_a-pic18f4520.asm
                     _TOS   0x000ffd       data     extern libdev18f4520_a-pic18f4520.asm
                    _TOSH   0x000ffe       data     extern libdev18f4520_a-pic18f4520.asm
                    _TOSL   0x000ffd       data     extern libdev18f4520_a-pic18f4520.asm
                    _TOSU   0x000fff       data     extern libdev18f4520_a-pic18f4520.asm
                   _TRISA   0x000f92       data     extern libdev18f4520_a-pic18f4520.asm
               _TRISAbits   0x000f92       data     extern libdev18f4520_a-pic18f4520.asm
                   _TRISB   0x000f93       data     extern libdev18f4520_a-pic18f4520.asm
               _TRISBbits   0x000f93       data     extern libdev18f4520_a-pic18f4520.asm
                   _TRISC   0x000f94       data     extern libdev18f4520_a-pic18f4520.asm
               _TRISCbits   0x000f94       data     extern libdev18f4520_a-pic18f4520.asm
                   _TRISD   0x000f95       data     extern libdev18f4520_a-pic18f4520.asm
               _TRISDbits   0x000f95       data     extern libdev18f4520_a-pic18f4520.asm
                   _TRISE   0x000f96       data     extern libdev18f4520_a-pic18f4520.asm
               _TRISEbits   0x000f96       data     extern libdev18f4520_a-pic18f4520.asm
                   _TXREG   0x000fad       data     extern libdev18f4520_a-pic18f4520.asm
                   _TXSTA   0x000fac       data     extern libdev18f4520_a-pic18f4520.asm
               _TXSTAbits   0x000fac       data     extern libdev18f4520_a-pic18f4520.asm
                  _WDTCON   0x000fd1       data     extern libdev18f4520_a-pic18f4520.asm
              _WDTCONbits   0x000fd1       data     extern libdev18f4520_a-pic18f4520.asm
                    _WREG   0x000fe8       data     extern libdev18f4520_a-pic18f4520.asm
      ___eeprom8_gptrget3   0x000700    program     extern eeprom8_gptrget3.asm
       ___eeprom_gptrget3   0x000736    program     extern /home/sdcc-builder/build/sdcc-build/orig/sdcc/device/non-free/lib/pic16/libdev/gptr/eeprom8_gptrget3_dispatch.S
                ___uflags   0x00009a       data     extern crt0i.asm
                  __entry   0x000000    program     extern crt0i.asm
               __gptrget3   0x000640    program     extern gptrget3.asm
                __startup   0x0003f8    program     extern crt0i.asm
             _changePORTD   0x0005fe    program     extern build/default/production/drvLed.asm
                   _cinit   0x000728    program     extern 
                      _eu   0x000087       data     static build/default/production/drvLcd.asm
                      _eu   0x000080       data     static build/default/production/drvLed.asm
            _getLcdDriver   0x000526    program     extern build/default/production/drvLcd.asm
            _getLedDriver   0x000496    program     extern build/default/production/drvLed.asm
                 _initLed   0x0005b6    program     extern build/default/production/drvLed.asm
             _invertPORTD   0x0006d6    program     extern build/default/production/drvLed.asm
                 _lab_01_   0x000654    program     static gptrget3.asm
                    _main   0x000004    program     extern build/default/production/main.asm
          _minhas_funcoes   0x000094       data     static build/default/production/drvLcd.asm
          _minhas_funcoes   0x00008e       data     static build/default/production/drvLed.asm
                   _stack   0x000100       data     extern /home/sdcc-builder/build/sdcc-build/orig/sdcc/device/lib/pic16/libsdcc/stack/stack.S
               _stack_end   0x0001ff       data     extern /home/sdcc-builder/build/sdcc-build/orig/sdcc/device/lib/pic16/libsdcc/stack/stack.S
                copy_loop   0x00046e    program     static crt0i.asm
            copy_loop_dec   0x000474    program     static crt0i.asm
               entry_loop   0x000420    program     static crt0i.asm
           entry_loop_dec   0x000488    program     static crt0i.asm
                   lockup   0x000494    program     static crt0i.asm
                    r0x00   0x000000       data     static build/default/production/drvLcd.asm
                    r0x00   0x000000       data     static build/default/production/drvLed.asm
                    r0x00   0x000000       data     static build/default/production/main.asm
                    r0x01   0x000001       data     static build/default/production/main.asm
                    r0x01   0x000001       data     static build/default/production/drvLcd.asm
                    r0x01   0x000001       data     static build/default/production/drvLed.asm
                    r0x02   0x000002       data     static build/default/production/drvLcd.asm
                    r0x02   0x000002       data     static build/default/production/main.asm
                    r0x02   0x000002       data     static build/default/production/drvLed.asm
                    r0x03   0x000003       data     static build/default/production/main.asm
                    r0x03   0x000003       data     static build/default/production/drvLcd.asm
                    r0x04   0x000004       data     static build/default/production/main.asm
                    r0x05   0x000005       data     static build/default/production/main.asm
                    r0x06   0x000006       data     static build/default/production/main.asm
                    r0x07   0x000007       data     static build/default/production/main.asm
                    r0x08   0x000008       data     static build/default/production/main.asm



                              Symbols - Sorted by Address
                     Name    Address   Location    Storage File
                ---------  ---------  ---------  --------- ---------
                    r0x00   0x000000       data     static build/default/production/drvLcd.asm
                    r0x00   0x000000       data     static build/default/production/drvLed.asm
                    r0x00   0x000000       data     static build/default/production/main.asm
                  __entry   0x000000    program     extern crt0i.asm
                    r0x01   0x000001       data     static build/default/production/drvLcd.asm
                    r0x01   0x000001       data     static build/default/production/drvLed.asm
                    r0x01   0x000001       data     static build/default/production/main.asm
                    r0x02   0x000002       data     static build/default/production/drvLed.asm
                    r0x02   0x000002       data     static build/default/production/main.asm
                    r0x02   0x000002       data     static build/default/production/drvLcd.asm
                    r0x03   0x000003       data     static build/default/production/drvLcd.asm
                    r0x03   0x000003       data     static build/default/production/main.asm
                    _main   0x000004    program     extern build/default/production/main.asm
                    r0x04   0x000004       data     static build/default/production/main.asm
                    r0x05   0x000005       data     static build/default/production/main.asm
                    r0x06   0x000006       data     static build/default/production/main.asm
                    r0x07   0x000007       data     static build/default/production/main.asm
                    r0x08   0x000008       data     static build/default/production/main.asm
               _00107_DS_   0x00006c    program     static build/default/production/main.asm
                      _eu   0x000080       data     static build/default/production/drvLed.asm
                      _eu   0x000087       data     static build/default/production/drvLcd.asm
          _minhas_funcoes   0x00008e       data     static build/default/production/drvLed.asm
          _minhas_funcoes   0x000094       data     static build/default/production/drvLcd.asm
                ___uflags   0x00009a       data     extern crt0i.asm
               _00108_DS_   0x0000e2    program     static build/default/production/main.asm
                   _stack   0x000100       data     extern /home/sdcc-builder/build/sdcc-build/orig/sdcc/device/lib/pic16/libsdcc/stack/stack.S
               _00109_DS_   0x00015c    program     static build/default/production/main.asm
           _InicializaLCD   0x000162    program     extern build/default/production/drvLcd.asm
               _stack_end   0x0001ff       data     extern /home/sdcc-builder/build/sdcc-build/orig/sdcc/device/lib/pic16/libsdcc/stack/stack.S
              _EnviaDados   0x00027c    program     extern build/default/production/drvLcd.asm
            _EnviaComando   0x00033a    program     extern build/default/production/drvLcd.asm
                __startup   0x0003f8    program     extern crt0i.asm
               entry_loop   0x000420    program     static crt0i.asm
                copy_loop   0x00046e    program     static crt0i.asm
            copy_loop_dec   0x000474    program     static crt0i.asm
           entry_loop_dec   0x000488    program     static crt0i.asm
                   lockup   0x000494    program     static crt0i.asm
            _getLedDriver   0x000496    program     extern build/default/production/drvLed.asm
            _getLcdDriver   0x000526    program     extern build/default/production/drvLcd.asm
                 _initLed   0x0005b6    program     extern build/default/production/drvLed.asm
             _changePORTD   0x0005fe    program     extern build/default/production/drvLed.asm
               __gptrget3   0x000640    program     extern gptrget3.asm
                 _lab_01_   0x000654    program     static gptrget3.asm
                _Delay2ms   0x000676    program     extern build/default/production/drvLcd.asm
               _00117_DS_   0x00068a    program     static build/default/production/drvLcd.asm
               _Delay40us   0x0006a8    program     extern build/default/production/drvLcd.asm
               _00108_DS_   0x0006bc    program     static build/default/production/drvLcd.asm
             _invertPORTD   0x0006d6    program     extern build/default/production/drvLed.asm
      ___eeprom8_gptrget3   0x000700    program     extern eeprom8_gptrget3.asm
                   _cinit   0x000728    program     extern 
       ___eeprom_gptrget3   0x000736    program     extern /home/sdcc-builder/build/sdcc-build/orig/sdcc/device/non-free/lib/pic16/libdev/gptr/eeprom8_gptrget3_dispatch.S
                   _PORTA   0x000f80       data     extern libdev18f4520_a-pic18f4520.asm
               _PORTAbits   0x000f80       data     extern libdev18f4520_a-pic18f4520.asm
                   _PORTB   0x000f81       data     extern libdev18f4520_a-pic18f4520.asm
               _PORTBbits   0x000f81       data     extern libdev18f4520_a-pic18f4520.asm
               _PORTCbits   0x000f82       data     extern libdev18f4520_a-pic18f4520.asm
                   _PORTC   0x000f82       data     extern libdev18f4520_a-pic18f4520.asm
                   _PORTD   0x000f83       data     extern libdev18f4520_a-pic18f4520.asm
               _PORTDbits   0x000f83       data     extern libdev18f4520_a-pic18f4520.asm
               _PORTEbits   0x000f84       data     extern libdev18f4520_a-pic18f4520.asm
                   _PORTE   0x000f84       data     extern libdev18f4520_a-pic18f4520.asm
                _LATAbits   0x000f89       data     extern libdev18f4520_a-pic18f4520.asm
                    _LATA   0x000f89       data     extern libdev18f4520_a-pic18f4520.asm
                _LATBbits   0x000f8a       data     extern libdev18f4520_a-pic18f4520.asm
                    _LATB   0x000f8a       data     extern libdev18f4520_a-pic18f4520.asm
                    _LATC   0x000f8b       data     extern libdev18f4520_a-pic18f4520.asm
                _LATCbits   0x000f8b       data     extern libdev18f4520_a-pic18f4520.asm
                _LATDbits   0x000f8c       data     extern libdev18f4520_a-pic18f4520.asm
                    _LATD   0x000f8c       data     extern libdev18f4520_a-pic18f4520.asm
                    _LATE   0x000f8d       data     extern libdev18f4520_a-pic18f4520.asm
                _LATEbits   0x000f8d       data     extern libdev18f4520_a-pic18f4520.asm
                   _TRISA   0x000f92       data     extern libdev18f4520_a-pic18f4520.asm
                _DDRAbits   0x000f92       data     extern libdev18f4520_a-pic18f4520.asm
                    _DDRA   0x000f92       data     extern libdev18f4520_a-pic18f4520.asm
               _TRISAbits   0x000f92       data     extern libdev18f4520_a-pic18f4520.asm
                _DDRBbits   0x000f93       data     extern libdev18f4520_a-pic18f4520.asm
                    _DDRB   0x000f93       data     extern libdev18f4520_a-pic18f4520.asm
                   _TRISB   0x000f93       data     extern libdev18f4520_a-pic18f4520.asm
               _TRISBbits   0x000f93       data     extern libdev18f4520_a-pic18f4520.asm
                   _TRISC   0x000f94       data     extern libdev18f4520_a-pic18f4520.asm
                    _DDRC   0x000f94       data     extern libdev18f4520_a-pic18f4520.asm
               _TRISCbits   0x000f94       data     extern libdev18f4520_a-pic18f4520.asm
                _DDRCbits   0x000f94       data     extern libdev18f4520_a-pic18f4520.asm
               _TRISDbits   0x000f95       data     extern libdev18f4520_a-pic18f4520.asm
                _DDRDbits   0x000f95       data     extern libdev18f4520_a-pic18f4520.asm
                   _TRISD   0x000f95       data     extern libdev18f4520_a-pic18f4520.asm
                    _DDRD   0x000f95       data     extern libdev18f4520_a-pic18f4520.asm
                    _DDRE   0x000f96       data     extern libdev18f4520_a-pic18f4520.asm
               _TRISEbits   0x000f96       data     extern libdev18f4520_a-pic18f4520.asm
                   _TRISE   0x000f96       data     extern libdev18f4520_a-pic18f4520.asm
                _DDREbits   0x000f96       data     extern libdev18f4520_a-pic18f4520.asm
             _OSCTUNEbits   0x000f9b       data     extern libdev18f4520_a-pic18f4520.asm
                 _OSCTUNE   0x000f9b       data     extern libdev18f4520_a-pic18f4520.asm
                    _PIE1   0x000f9d       data     extern libdev18f4520_a-pic18f4520.asm
                _PIE1bits   0x000f9d       data     extern libdev18f4520_a-pic18f4520.asm
                _PIR1bits   0x000f9e       data     extern libdev18f4520_a-pic18f4520.asm
                    _PIR1   0x000f9e       data     extern libdev18f4520_a-pic18f4520.asm
                    _IPR1   0x000f9f       data     extern libdev18f4520_a-pic18f4520.asm
                _IPR1bits   0x000f9f       data     extern libdev18f4520_a-pic18f4520.asm
                _PIE2bits   0x000fa0       data     extern libdev18f4520_a-pic18f4520.asm
                    _PIE2   0x000fa0       data     extern libdev18f4520_a-pic18f4520.asm
                _PIR2bits   0x000fa1       data     extern libdev18f4520_a-pic18f4520.asm
                    _PIR2   0x000fa1       data     extern libdev18f4520_a-pic18f4520.asm
                    _IPR2   0x000fa2       data     extern libdev18f4520_a-pic18f4520.asm
                _IPR2bits   0x000fa2       data     extern libdev18f4520_a-pic18f4520.asm
              _EECON1bits   0x000fa6       data     extern libdev18f4520_a-pic18f4520.asm
                  _EECON1   0x000fa6       data     extern libdev18f4520_a-pic18f4520.asm
                  _EECON2   0x000fa7       data     extern libdev18f4520_a-pic18f4520.asm
                  _EEDATA   0x000fa8       data     extern libdev18f4520_a-pic18f4520.asm
                   _EEADR   0x000fa9       data     extern libdev18f4520_a-pic18f4520.asm
                   _RCSTA   0x000fab       data     extern libdev18f4520_a-pic18f4520.asm
               _RCSTAbits   0x000fab       data     extern libdev18f4520_a-pic18f4520.asm
                   _TXSTA   0x000fac       data     extern libdev18f4520_a-pic18f4520.asm
               _TXSTAbits   0x000fac       data     extern libdev18f4520_a-pic18f4520.asm
                   _TXREG   0x000fad       data     extern libdev18f4520_a-pic18f4520.asm
                   _RCREG   0x000fae       data     extern libdev18f4520_a-pic18f4520.asm
                   _SPBRG   0x000faf       data     extern libdev18f4520_a-pic18f4520.asm
                  _SPBRGH   0x000fb0       data     extern libdev18f4520_a-pic18f4520.asm
                   _T3CON   0x000fb1       data     extern libdev18f4520_a-pic18f4520.asm
               _T3CONbits   0x000fb1       data     extern libdev18f4520_a-pic18f4520.asm
                    _TMR3   0x000fb2       data     extern libdev18f4520_a-pic18f4520.asm
                   _TMR3L   0x000fb2       data     extern libdev18f4520_a-pic18f4520.asm
                   _TMR3H   0x000fb3       data     extern libdev18f4520_a-pic18f4520.asm
               _CMCONbits   0x000fb4       data     extern libdev18f4520_a-pic18f4520.asm
                   _CMCON   0x000fb4       data     extern libdev18f4520_a-pic18f4520.asm
              _CVRCONbits   0x000fb5       data     extern libdev18f4520_a-pic18f4520.asm
                  _CVRCON   0x000fb5       data     extern libdev18f4520_a-pic18f4520.asm
              _ECCPASbits   0x000fb6       data     extern libdev18f4520_a-pic18f4520.asm
                  _ECCPAS   0x000fb6       data     extern libdev18f4520_a-pic18f4520.asm
             _ECCP1ASbits   0x000fb6       data     extern libdev18f4520_a-pic18f4520.asm
                 _ECCP1AS   0x000fb6       data     extern libdev18f4520_a-pic18f4520.asm
             _PWM1CONbits   0x000fb7       data     extern libdev18f4520_a-pic18f4520.asm
            _ECCP1DELbits   0x000fb7       data     extern libdev18f4520_a-pic18f4520.asm
                 _PWM1CON   0x000fb7       data     extern libdev18f4520_a-pic18f4520.asm
                _ECCP1DEL   0x000fb7       data     extern libdev18f4520_a-pic18f4520.asm
                 _BAUDCTL   0x000fb8       data     extern libdev18f4520_a-pic18f4520.asm
                 _BAUDCON   0x000fb8       data     extern libdev18f4520_a-pic18f4520.asm
             _BAUDCTLbits   0x000fb8       data     extern libdev18f4520_a-pic18f4520.asm
             _BAUDCONbits   0x000fb8       data     extern libdev18f4520_a-pic18f4520.asm
             _CCP2CONbits   0x000fba       data     extern libdev18f4520_a-pic18f4520.asm
                 _CCP2CON   0x000fba       data     extern libdev18f4520_a-pic18f4520.asm
                   _CCPR2   0x000fbb       data     extern libdev18f4520_a-pic18f4520.asm
                  _CCPR2L   0x000fbb       data     extern libdev18f4520_a-pic18f4520.asm
                  _CCPR2H   0x000fbc       data     extern libdev18f4520_a-pic18f4520.asm
             _CCP1CONbits   0x000fbd       data     extern libdev18f4520_a-pic18f4520.asm
                 _CCP1CON   0x000fbd       data     extern libdev18f4520_a-pic18f4520.asm
                  _CCPR1L   0x000fbe       data     extern libdev18f4520_a-pic18f4520.asm
                   _CCPR1   0x000fbe       data     extern libdev18f4520_a-pic18f4520.asm
                  _CCPR1H   0x000fbf       data     extern libdev18f4520_a-pic18f4520.asm
                  _ADCON2   0x000fc0       data     extern libdev18f4520_a-pic18f4520.asm
              _ADCON2bits   0x000fc0       data     extern libdev18f4520_a-pic18f4520.asm
                  _ADCON1   0x000fc1       data     extern libdev18f4520_a-pic18f4520.asm
              _ADCON1bits   0x000fc1       data     extern libdev18f4520_a-pic18f4520.asm
              _ADCON0bits   0x000fc2       data     extern libdev18f4520_a-pic18f4520.asm
                  _ADCON0   0x000fc2       data     extern libdev18f4520_a-pic18f4520.asm
                  _ADRESL   0x000fc3       data     extern libdev18f4520_a-pic18f4520.asm
                   _ADRES   0x000fc3       data     extern libdev18f4520_a-pic18f4520.asm
                  _ADRESH   0x000fc4       data     extern libdev18f4520_a-pic18f4520.asm
                 _SSPCON2   0x000fc5       data     extern libdev18f4520_a-pic18f4520.asm
             _SSPCON2bits   0x000fc5       data     extern libdev18f4520_a-pic18f4520.asm
                 _SSPCON1   0x000fc6       data     extern libdev18f4520_a-pic18f4520.asm
             _SSPCON1bits   0x000fc6       data     extern libdev18f4520_a-pic18f4520.asm
                 _SSPSTAT   0x000fc7       data     extern libdev18f4520_a-pic18f4520.asm
             _SSPSTATbits   0x000fc7       data     extern libdev18f4520_a-pic18f4520.asm
                  _SSPADD   0x000fc8       data     extern libdev18f4520_a-pic18f4520.asm
                  _SSPBUF   0x000fc9       data     extern libdev18f4520_a-pic18f4520.asm
                   _T2CON   0x000fca       data     extern libdev18f4520_a-pic18f4520.asm
               _T2CONbits   0x000fca       data     extern libdev18f4520_a-pic18f4520.asm
                     _PR2   0x000fcb       data     extern libdev18f4520_a-pic18f4520.asm
                    _TMR2   0x000fcc       data     extern libdev18f4520_a-pic18f4520.asm
               _T1CONbits   0x000fcd       data     extern libdev18f4520_a-pic18f4520.asm
                   _T1CON   0x000fcd       data     extern libdev18f4520_a-pic18f4520.asm
                   _TMR1L   0x000fce       data     extern libdev18f4520_a-pic18f4520.asm
                    _TMR1   0x000fce       data     extern libdev18f4520_a-pic18f4520.asm
                   _TMR1H   0x000fcf       data     extern libdev18f4520_a-pic18f4520.asm
                    _RCON   0x000fd0       data     extern libdev18f4520_a-pic18f4520.asm
                _RCONbits   0x000fd0       data     extern libdev18f4520_a-pic18f4520.asm
              _WDTCONbits   0x000fd1       data     extern libdev18f4520_a-pic18f4520.asm
                  _WDTCON   0x000fd1       data     extern libdev18f4520_a-pic18f4520.asm
                  _LVDCON   0x000fd2       data     extern libdev18f4520_a-pic18f4520.asm
             _HLVDCONbits   0x000fd2       data     extern libdev18f4520_a-pic18f4520.asm
                 _HLVDCON   0x000fd2       data     extern libdev18f4520_a-pic18f4520.asm
              _LVDCONbits   0x000fd2       data     extern libdev18f4520_a-pic18f4520.asm
                  _OSCCON   0x000fd3       data     extern libdev18f4520_a-pic18f4520.asm
              _OSCCONbits   0x000fd3       data     extern libdev18f4520_a-pic18f4520.asm
               _T0CONbits   0x000fd5       data     extern libdev18f4520_a-pic18f4520.asm
                   _T0CON   0x000fd5       data     extern libdev18f4520_a-pic18f4520.asm
                    _TMR0   0x000fd6       data     extern libdev18f4520_a-pic18f4520.asm
                   _TMR0L   0x000fd6       data     extern libdev18f4520_a-pic18f4520.asm
                   _TMR0H   0x000fd7       data     extern libdev18f4520_a-pic18f4520.asm
              _STATUSbits   0x000fd8       data     extern libdev18f4520_a-pic18f4520.asm
                  _STATUS   0x000fd8       data     extern libdev18f4520_a-pic18f4520.asm
                   _FSR2L   0x000fd9       data     extern libdev18f4520_a-pic18f4520.asm
                   _FSR2H   0x000fda       data     extern libdev18f4520_a-pic18f4520.asm
                  _PLUSW2   0x000fdb       data     extern libdev18f4520_a-pic18f4520.asm
                 _PREINC2   0x000fdc       data     extern libdev18f4520_a-pic18f4520.asm
                _POSTDEC2   0x000fdd       data     extern libdev18f4520_a-pic18f4520.asm
                _POSTINC2   0x000fde       data     extern libdev18f4520_a-pic18f4520.asm
                   _INDF2   0x000fdf       data     extern libdev18f4520_a-pic18f4520.asm
                     _BSR   0x000fe0       data     extern libdev18f4520_a-pic18f4520.asm
                   _FSR1L   0x000fe1       data     extern libdev18f4520_a-pic18f4520.asm
                   _FSR1H   0x000fe2       data     extern libdev18f4520_a-pic18f4520.asm
                  _PLUSW1   0x000fe3       data     extern libdev18f4520_a-pic18f4520.asm
                 _PREINC1   0x000fe4       data     extern libdev18f4520_a-pic18f4520.asm
                _POSTDEC1   0x000fe5       data     extern libdev18f4520_a-pic18f4520.asm
                _POSTINC1   0x000fe6       data     extern libdev18f4520_a-pic18f4520.asm
                   _INDF1   0x000fe7       data     extern libdev18f4520_a-pic18f4520.asm
                    _WREG   0x000fe8       data     extern libdev18f4520_a-pic18f4520.asm
                   _FSR0L   0x000fe9       data     extern libdev18f4520_a-pic18f4520.asm
                   _FSR0H   0x000fea       data     extern libdev18f4520_a-pic18f4520.asm
                  _PLUSW0   0x000feb       data     extern libdev18f4520_a-pic18f4520.asm
                 _PREINC0   0x000fec       data     extern libdev18f4520_a-pic18f4520.asm
                _POSTDEC0   0x000fed       data     extern libdev18f4520_a-pic18f4520.asm
                _POSTINC0   0x000fee       data     extern libdev18f4520_a-pic18f4520.asm
                   _INDF0   0x000fef       data     extern libdev18f4520_a-pic18f4520.asm
                 _INTCON3   0x000ff0       data     extern libdev18f4520_a-pic18f4520.asm
             _INTCON3bits   0x000ff0       data     extern libdev18f4520_a-pic18f4520.asm
             _INTCON2bits   0x000ff1       data     extern libdev18f4520_a-pic18f4520.asm
                 _INTCON2   0x000ff1       data     extern libdev18f4520_a-pic18f4520.asm
              _INTCONbits   0x000ff2       data     extern libdev18f4520_a-pic18f4520.asm
                  _INTCON   0x000ff2       data     extern libdev18f4520_a-pic18f4520.asm
                   _PRODL   0x000ff3       data     extern libdev18f4520_a-pic18f4520.asm
                    _PROD   0x000ff3       data     extern libdev18f4520_a-pic18f4520.asm
                   _PRODH   0x000ff4       data     extern libdev18f4520_a-pic18f4520.asm
                  _TABLAT   0x000ff5       data     extern libdev18f4520_a-pic18f4520.asm
                  _TBLPTR   0x000ff6       data     extern libdev18f4520_a-pic18f4520.asm
                 _TBLPTRL   0x000ff6       data     extern libdev18f4520_a-pic18f4520.asm
                 _TBLPTRH   0x000ff7       data     extern libdev18f4520_a-pic18f4520.asm
                 _TBLPTRU   0x000ff8       data     extern libdev18f4520_a-pic18f4520.asm
                     _PCL   0x000ff9       data     extern libdev18f4520_a-pic18f4520.asm
                      _PC   0x000ff9       data     extern libdev18f4520_a-pic18f4520.asm
                  _PCLATH   0x000ffa       data     extern libdev18f4520_a-pic18f4520.asm
                  _PCLATU   0x000ffb       data     extern libdev18f4520_a-pic18f4520.asm
                  _STKPTR   0x000ffc       data     extern libdev18f4520_a-pic18f4520.asm
              _STKPTRbits   0x000ffc       data     extern libdev18f4520_a-pic18f4520.asm
                     _TOS   0x000ffd       data     extern libdev18f4520_a-pic18f4520.asm
                    _TOSL   0x000ffd       data     extern libdev18f4520_a-pic18f4520.asm
                    _TOSH   0x000ffe       data     extern libdev18f4520_a-pic18f4520.asm
                    _TOSU   0x000fff       data     extern libdev18f4520_a-pic18f4520.asm


